; Function Attrs: mustprogress uwtable
define internal void @_ZN3gmx15analysismodules12_GLOBAL__N_16Select15optionsFinishedEPNS_26TrajectoryAnalysisSettingsE(ptr noundef nonnull align 8 dereferenceable(472) %0, ptr noundef %1) unnamed_addr #0 align 2 {
  %3 = getelementptr inbounds i8, ptr %0, i64 232
  %4 = tail call noundef zeroext i1 @_ZNKSt7__cxx1112basic_stringIcSt11char_traitsIcESaIcEE5emptyEv(ptr noundef nonnull align 8 dereferenceable(32) %3) #22
  br i1 %4, label %6, label %5

5:                                                ; preds = %2
  tail call void @_ZN3gmx26TrajectoryAnalysisSettings7setFlagEmb(ptr noundef nonnull align 8 dereferenceable(8) %1, i64 noundef 1, i1 noundef zeroext true)
  tail call void @_ZN3gmx26TrajectoryAnalysisSettings7setFlagEmb(ptr noundef nonnull align 8 dereferenceable(8) %1, i64 noundef 2, i1 noundef zeroext true)
  br label %6

6:                                                ; preds = %5, %2
  ret void
}